target datalayout = "e-m:e-p270:32:32-p271:32:32-p272:64:64-i64:64-i128:128-f80:128-n8:16:32:64-S128"
target triple = "x86_64-pc-linux-gnu"

%struct.AVFormatContext = type { ptr, ptr, ptr, ptr, ptr, i32, i32, ptr, i32, ptr, i32, ptr, ptr, i64, i64, i64, i32, i32, i32, i64, i64, ptr, i32, i32, ptr, i32, i32, i32, i32, ptr, i64, i32, i32, %struct.AVIOInterruptCB, i32, i32, i32, i32, i64, i32, i32, i32, i32, i32, i32, i32, i32, i32, i32, i32, i32, i64, i32, i32, i32, i32, i32, ptr, ptr, ptr, ptr, i32, ptr, ptr, ptr, ptr, i32, ptr, ptr, i64, ptr, ptr, ptr, i64 }
%struct.AVIOInterruptCB = type { ptr, ptr }
%struct.AVStream = type { ptr, i32, i32, ptr, ptr, %struct.AVRational, i64, i64, i64, i32, i32, %struct.AVRational, ptr, %struct.AVRational, %struct.AVPacket, i32, %struct.AVRational, i32 }
%struct.AVPacket = type { ptr, i64, i64, ptr, i32, i32, i32, ptr, i32, i64, i64, ptr, ptr, %struct.AVRational }
%struct.AVRational = type { i32, i32 }
%struct.AVCodecParameters = type { i32, i32, i32, ptr, i32, ptr, i32, i32, i64, i32, i32, i32, i32, i32, i32, %struct.AVRational, %struct.AVRational, i32, i32, i32, i32, i32, i32, i32, %struct.AVChannelLayout, i32, i32, i32, i32, i32, i32 }
%struct.AVChannelLayout = type { i32, i32, %union.anon.0, ptr }
%union.anon.0 = type { i64 }
%struct.OSSAudioData = type { ptr, i32, i32, i32, i32, i32, i32, i8, [4096 x i8], i32 }

; Function Attrs: nounwind uwtable
define internal i32 @audio_read_header(ptr noundef %0) #0 {
  %2 = alloca i32, align 4
  %3 = alloca ptr, align 8
  %4 = alloca ptr, align 8
  %5 = alloca ptr, align 8
  %6 = alloca i32, align 4
  %7 = alloca i32, align 4
  store ptr %0, ptr %3, align 8, !tbaa !4
  call void @llvm.lifetime.start.p0(i64 8, ptr %4) #5
  %8 = load ptr, ptr %3, align 8, !tbaa !4
  %9 = getelementptr inbounds nuw %struct.AVFormatContext, ptr %8, i32 0, i32 3
  %10 = load ptr, ptr %9, align 8, !tbaa !9
  store ptr %10, ptr %4, align 8, !tbaa !26
  call void @llvm.lifetime.start.p0(i64 8, ptr %5) #5
  call void @llvm.lifetime.start.p0(i64 4, ptr %6) #5
  %11 = load ptr, ptr %3, align 8, !tbaa !4
  %12 = call ptr @avformat_new_stream(ptr noundef %11, ptr noundef null)
  store ptr %12, ptr %5, align 8, !tbaa !28
  %13 = load ptr, ptr %5, align 8, !tbaa !28
  %14 = icmp ne ptr %13, null
  br i1 %14, label %16, label %15

15:                                               ; preds = %1
  store i32 -12, ptr %2, align 4
  store i32 1, ptr %7, align 4
  br label %53

16:                                               ; preds = %1
  %17 = load ptr, ptr %3, align 8, !tbaa !4
  %18 = load ptr, ptr %3, align 8, !tbaa !4
  %19 = getelementptr inbounds nuw %struct.AVFormatContext, ptr %18, i32 0, i32 12
  %20 = load ptr, ptr %19, align 8, !tbaa !30
  %21 = call i32 @ff_oss_audio_open(ptr noundef %17, i32 noundef 0, ptr noundef %20)
  store i32 %21, ptr %6, align 4, !tbaa !31
  %22 = load i32, ptr %6, align 4, !tbaa !31
  %23 = icmp slt i32 %22, 0
  br i1 %23, label %24, label %25

24:                                               ; preds = %16
  store i32 -5, ptr %2, align 4
  store i32 1, ptr %7, align 4
  br label %53

25:                                               ; preds = %16
  %26 = load ptr, ptr %5, align 8, !tbaa !28
  %27 = getelementptr inbounds nuw %struct.AVStream, ptr %26, i32 0, i32 3
  %28 = load ptr, ptr %27, align 8, !tbaa !32
  %29 = getelementptr inbounds nuw %struct.AVCodecParameters, ptr %28, i32 0, i32 0
  store i32 1, ptr %29, align 8, !tbaa !39
  %30 = load ptr, ptr %4, align 8, !tbaa !26
  %31 = getelementptr inbounds nuw %struct.OSSAudioData, ptr %30, i32 0, i32 6
  %32 = load i32, ptr %31, align 4, !tbaa !42
  %33 = load ptr, ptr %5, align 8, !tbaa !28
  %34 = getelementptr inbounds nuw %struct.AVStream, ptr %33, i32 0, i32 3
  %35 = load ptr, ptr %34, align 8, !tbaa !32
  %36 = getelementptr inbounds nuw %struct.AVCodecParameters, ptr %35, i32 0, i32 1
  store i32 %32, ptr %36, align 4, !tbaa !44
  %37 = load ptr, ptr %4, align 8, !tbaa !26
  %38 = getelementptr inbounds nuw %struct.OSSAudioData, ptr %37, i32 0, i32 2
  %39 = load i32, ptr %38, align 4, !tbaa !45
  %40 = load ptr, ptr %5, align 8, !tbaa !28
  %41 = getelementptr inbounds nuw %struct.AVStream, ptr %40, i32 0, i32 3
  %42 = load ptr, ptr %41, align 8, !tbaa !32
  %43 = getelementptr inbounds nuw %struct.AVCodecParameters, ptr %42, i32 0, i32 25
  store i32 %39, ptr %43, align 8, !tbaa !46
  %44 = load ptr, ptr %4, align 8, !tbaa !26
  %45 = getelementptr inbounds nuw %struct.OSSAudioData, ptr %44, i32 0, i32 4
  %46 = load i32, ptr %45, align 4, !tbaa !47
  %47 = load ptr, ptr %5, align 8, !tbaa !28
  %48 = getelementptr inbounds nuw %struct.AVStream, ptr %47, i32 0, i32 3
  %49 = load ptr, ptr %48, align 8, !tbaa !32
  %50 = getelementptr inbounds nuw %struct.AVCodecParameters, ptr %49, i32 0, i32 24
  %51 = getelementptr inbounds nuw %struct.AVChannelLayout, ptr %50, i32 0, i32 1
  store i32 %46, ptr %51, align 4, !tbaa !48
  %52 = load ptr, ptr %5, align 8, !tbaa !28
  call void @avpriv_set_pts_info(ptr noundef %52, i32 noundef 64, i32 noundef 1, i32 noundef 1000000)
  store i32 0, ptr %2, align 4
  store i32 1, ptr %7, align 4
  br label %53

53:                                               ; preds = %25, %24, %15
  call void @llvm.lifetime.end.p0(i64 4, ptr %6) #5
  call void @llvm.lifetime.end.p0(i64 8, ptr %5) #5
  call void @llvm.lifetime.end.p0(i64 8, ptr %4) #5
  %54 = load i32, ptr %2, align 4
  ret i32 %54
}