; Function Attrs: nounwind uwtable
define internal range(i32 -12, 1) i32 @audio_read_header(ptr noundef %0) #0 {
  %2 = getelementptr inbounds nuw i8, ptr %0, i64 24
  %3 = load ptr, ptr %2, align 8, !tbaa !4
  %4 = tail call ptr @avformat_new_stream(ptr noundef %0, ptr noundef null) #6
  %.not = icmp eq ptr %4, null
  br i1 %.not, label %22, label %5

5:                                                ; preds = %1
  %6 = getelementptr inbounds nuw i8, ptr %0, i64 88
  %7 = load ptr, ptr %6, align 8, !tbaa !24
  %8 = tail call i32 @ff_oss_audio_open(ptr noundef nonnull %0, i32 noundef 0, ptr noundef %7) #6
  %9 = icmp slt i32 %8, 0
  br i1 %9, label %22, label %10

10:                                               ; preds = %5
  %11 = getelementptr inbounds nuw i8, ptr %4, i64 16
  %12 = load ptr, ptr %11, align 8, !tbaa !25
  store i32 1, ptr %12, align 8, !tbaa !32
  %13 = getelementptr inbounds nuw i8, ptr %3, i64 28
  %14 = load i32, ptr %13, align 4, !tbaa !35
  %15 = getelementptr inbounds nuw i8, ptr %12, i64 4
  store i32 %14, ptr %15, align 4, !tbaa !37
  %16 = getelementptr inbounds nuw i8, ptr %3, i64 12
  %17 = load i32, ptr %16, align 4, !tbaa !38
  %18 = getelementptr inbounds nuw i8, ptr %12, i64 152
  store i32 %17, ptr %18, align 8, !tbaa !39
  %19 = getelementptr inbounds nuw i8, ptr %3, i64 20
  %20 = load i32, ptr %19, align 4, !tbaa !40
  %21 = getelementptr inbounds nuw i8, ptr %12, i64 132
  store i32 %20, ptr %21, align 4, !tbaa !41
  tail call void @avpriv_set_pts_info(ptr noundef nonnull %4, i32 noundef 64, i32 noundef 1, i32 noundef 1000000) #6
  br label %22

22:                                               ; preds = %5, %1, %10
  %.0 = phi i32 [ 0, %10 ], [ -12, %1 ], [ -5, %5 ]
  ret i32 %.0
}